target datalayout = "e-m:e-p270:32:32-p271:32:32-p272:64:64-i64:64-i128:128-f80:128-n8:16:32:64-S128"
target triple = "x86_64-pc-linux-gnu"

%class.ShenandoahPhaseTimings = type { i32, [316 x double], [316 x %class.HdrSeq], [316 x ptr], ptr }
%class.HdrSeq = type { %class.NumberSeq, ptr }
%class.NumberSeq = type { %class.AbsSeq, double, double }
%class.AbsSeq = type { ptr, i32, double, double, double, double, double }

; Function Attrs: mustprogress nounwind uwtable
define hidden noundef i32 @_ZN22ShenandoahPhaseTimings16worker_par_phaseENS_5PhaseENS_8ParPhaseE(ptr noundef nonnull align 8 dereferenceable(30352) %0, i32 noundef %1, i32 noundef %2) #1 align 2 {
  %4 = alloca ptr, align 8
  %5 = alloca i32, align 4
  %6 = alloca i32, align 4
  %7 = alloca i32, align 4
  store ptr %0, ptr %4, align 8
  store i32 %1, ptr %5, align 4
  store i32 %2, ptr %6, align 4
  %8 = load i32, ptr %5, align 4
  %9 = add nsw i32 %8, 1
  %10 = load i32, ptr %6, align 4
  %11 = add nsw i32 %9, %10
  store i32 %11, ptr %7, align 4
  %12 = load i32, ptr %7, align 4
  ret i32 %12
}

; Function Attrs: mustprogress nounwind uwtable
define hidden noundef ptr @_ZN22ShenandoahPhaseTimings11worker_dataENS_5PhaseENS_8ParPhaseE(ptr noundef nonnull align 8 dereferenceable(30352) %0, i32 noundef %1, i32 noundef %2) #1 align 2 {
  %4 = alloca ptr, align 8
  %5 = alloca i32, align 4
  %6 = alloca i32, align 4
  %7 = alloca i32, align 4
  %8 = alloca ptr, align 8
  store ptr %0, ptr %4, align 8
  store i32 %1, ptr %5, align 4
  store i32 %2, ptr %6, align 4
  %9 = load ptr, ptr %4, align 8
  %10 = load i32, ptr %5, align 4
  %11 = load i32, ptr %6, align 4
  %12 = call noundef i32 @_ZN22ShenandoahPhaseTimings16worker_par_phaseENS_5PhaseENS_8ParPhaseE(ptr noundef nonnull align 8 dereferenceable(30352) %9, i32 noundef %10, i32 noundef %11)
  store i32 %12, ptr %7, align 4
  %13 = getelementptr inbounds %class.ShenandoahPhaseTimings, ptr %9, i32 0, i32 3
  %14 = load i32, ptr %7, align 4
  %15 = zext i32 %14 to i64
  %16 = getelementptr inbounds [316 x ptr], ptr %13, i64 0, i64 %15
  %17 = load ptr, ptr %16, align 8
  store ptr %17, ptr %8, align 8
  %18 = load ptr, ptr %8, align 8
  ret ptr %18
}