; Function Attrs: mustprogress nofree norecurse nosync nounwind willreturn memory(argmem: read) uwtable
define hidden noundef ptr @_ZN22ShenandoahPhaseTimings11worker_dataENS_5PhaseENS_8ParPhaseE(ptr nocapture noundef nonnull readonly align 8 dereferenceable(30352) %0, i32 noundef %1, i32 noundef %2) local_unnamed_addr #4 align 2 {
  %4 = add nsw i32 %1, 1
  %5 = add nsw i32 %4, %2
  %6 = getelementptr inbounds i8, ptr %0, i64 27816
  %7 = zext i32 %5 to i64
  %8 = getelementptr inbounds [316 x ptr], ptr %6, i64 0, i64 %7
  %9 = load ptr, ptr %8, align 8
  ret ptr %9
}